target datalayout = "e-m:e-p270:32:32-p271:32:32-p272:64:64-i64:64-i128:128-f80:128-n8:16:32:64-S128"
target triple = "x86_64-pc-linux-gnu"

%struct.mbedtls_mpi = type { i32, i64, ptr }

; Function Attrs: mustprogress nounwind uwtable
define internal noundef i64 @_ZL26mpi_uint_bigendian_to_hostm(i64 noundef %0) #0 {
  %2 = alloca i64, align 8
  store i64 %0, ptr %2, align 8, !tbaa !16
  %3 = load i64, ptr %2, align 8, !tbaa !16
  %4 = call i64 @llvm.bswap.i64(i64 %3)
  ret i64 %4
}

; Function Attrs: mustprogress uwtable
define internal void @_ZL21mpi_bigendian_to_hostPmm(ptr noundef %0, i64 noundef %1) #1 {
  %3 = alloca ptr, align 8
  %4 = alloca i64, align 8
  %5 = alloca ptr, align 8
  %6 = alloca ptr, align 8
  %7 = alloca i32, align 4
  %8 = alloca i64, align 8
  store ptr %0, ptr %3, align 8, !tbaa !15
  store i64 %1, ptr %4, align 8, !tbaa !16
  call void @llvm.lifetime.start.p0(i64 8, ptr %5) #10
  call void @llvm.lifetime.start.p0(i64 8, ptr %6) #10
  %9 = load i64, ptr %4, align 8, !tbaa !16
  %10 = icmp eq i64 %9, 0
  br i1 %10, label %11, label %12

11:                                               ; preds = %2
  store i32 1, ptr %7, align 4
  br label %38

12:                                               ; preds = %2
  %13 = load ptr, ptr %3, align 8, !tbaa !15
  store ptr %13, ptr %5, align 8, !tbaa !15
  %14 = load ptr, ptr %3, align 8, !tbaa !15
  %15 = load i64, ptr %4, align 8, !tbaa !16
  %16 = sub i64 %15, 1
  %17 = getelementptr inbounds nuw i64, ptr %14, i64 %16
  store ptr %17, ptr %6, align 8, !tbaa !15
  br label %18

18:                                               ; preds = %32, %12
  %19 = load ptr, ptr %5, align 8, !tbaa !15
  %20 = load ptr, ptr %6, align 8, !tbaa !15
  %21 = icmp ule ptr %19, %20
  br i1 %21, label %22, label %37

22:                                               ; preds = %18
  call void @llvm.lifetime.start.p0(i64 8, ptr %8) #10
  %23 = load ptr, ptr %5, align 8, !tbaa !15
  %24 = load i64, ptr %23, align 8, !tbaa !16
  %25 = call noundef i64 @_ZL26mpi_uint_bigendian_to_hostm(i64 noundef %24)
  store i64 %25, ptr %8, align 8, !tbaa !16
  %26 = load ptr, ptr %6, align 8, !tbaa !15
  %27 = load i64, ptr %26, align 8, !tbaa !16
  %28 = call noundef i64 @_ZL26mpi_uint_bigendian_to_hostm(i64 noundef %27)
  %29 = load ptr, ptr %5, align 8, !tbaa !15
  store i64 %28, ptr %29, align 8, !tbaa !16
  %30 = load i64, ptr %8, align 8, !tbaa !16
  %31 = load ptr, ptr %6, align 8, !tbaa !15
  store i64 %30, ptr %31, align 8, !tbaa !16
  call void @llvm.lifetime.end.p0(i64 8, ptr %8) #10
  br label %32

32:                                               ; preds = %22
  %33 = load ptr, ptr %5, align 8, !tbaa !15
  %34 = getelementptr inbounds nuw i64, ptr %33, i32 1
  store ptr %34, ptr %5, align 8, !tbaa !15
  %35 = load ptr, ptr %6, align 8, !tbaa !15
  %36 = getelementptr inbounds i64, ptr %35, i32 -1
  store ptr %36, ptr %6, align 8, !tbaa !15
  br label %18, !llvm.loop !37

37:                                               ; preds = %18
  store i32 0, ptr %7, align 4
  br label %38

38:                                               ; preds = %37, %11
  call void @llvm.lifetime.end.p0(i64 8, ptr %6) #10
  call void @llvm.lifetime.end.p0(i64 8, ptr %5) #10
  %39 = load i32, ptr %7, align 4
  switch i32 %39, label %41 [
    i32 0, label %40
    i32 1, label %40
  ]

40:                                               ; preds = %38, %38
  ret void

41:                                               ; preds = %38
  unreachable
}

; Function Attrs: mustprogress uwtable
define hidden i32 @mbedtls_mpi_read_binary(ptr noundef %0, ptr noundef %1, i64 noundef %2) #1 {
  %4 = alloca ptr, align 8
  %5 = alloca ptr, align 8
  %6 = alloca i64, align 8
  %7 = alloca i32, align 4
  %8 = alloca i64, align 8
  %9 = alloca i64, align 8
  %10 = alloca ptr, align 8
  store ptr %0, ptr %4, align 8, !tbaa !3
  store ptr %1, ptr %5, align 8, !tbaa !26
  store i64 %2, ptr %6, align 8, !tbaa !16
  call void @llvm.lifetime.start.p0(i64 4, ptr %7) #10
  store i32 -110, ptr %7, align 4, !tbaa !19
  call void @llvm.lifetime.start.p0(i64 8, ptr %8) #10
  %11 = load i64, ptr %6, align 8, !tbaa !16
  %12 = udiv i64 %11, 8
  %13 = load i64, ptr %6, align 8, !tbaa !16
  %14 = urem i64 %13, 8
  %15 = icmp ne i64 %14, 0
  %16 = zext i1 %15 to i64
  %17 = add i64 %12, %16
  store i64 %17, ptr %8, align 8, !tbaa !16
  call void @llvm.lifetime.start.p0(i64 8, ptr %9) #10
  %18 = load i64, ptr %8, align 8, !tbaa !16
  %19 = mul i64 %18, 8
  %20 = load i64, ptr %6, align 8, !tbaa !16
  %21 = sub i64 %19, %20
  store i64 %21, ptr %9, align 8, !tbaa !16
  call void @llvm.lifetime.start.p0(i64 8, ptr %10) #10
  br label %22

22:                                               ; preds = %3
  br label %23

23:                                               ; preds = %22
  br label %24

24:                                               ; preds = %23
  br label %25

25:                                               ; preds = %24
  br label %26

26:                                               ; preds = %25
  br label %27

27:                                               ; preds = %26
  br label %28

28:                                               ; preds = %27
  %29 = load ptr, ptr %4, align 8, !tbaa !3
  %30 = load i64, ptr %8, align 8, !tbaa !16
  %31 = call noundef i32 @_ZL24mbedtls_mpi_resize_clearP11mbedtls_mpim(ptr noundef %29, i64 noundef %30)
  store i32 %31, ptr %7, align 4, !tbaa !19
  %32 = icmp ne i32 %31, 0
  br i1 %32, label %33, label %34

33:                                               ; preds = %28
  br label %53

34:                                               ; preds = %28
  br label %35

35:                                               ; preds = %34
  br label %36

36:                                               ; preds = %35
  %37 = load i64, ptr %6, align 8, !tbaa !16
  %38 = icmp ne i64 %37, 0
  br i1 %38, label %39, label %52

39:                                               ; preds = %36
  %40 = load ptr, ptr %4, align 8, !tbaa !3
  %41 = getelementptr inbounds nuw %struct.mbedtls_mpi, ptr %40, i32 0, i32 2
  %42 = load ptr, ptr %41, align 8, !tbaa !14
  store ptr %42, ptr %10, align 8, !tbaa !26
  %43 = load ptr, ptr %10, align 8, !tbaa !26
  %44 = load i64, ptr %9, align 8, !tbaa !16
  %45 = getelementptr inbounds nuw i8, ptr %43, i64 %44
  %46 = load ptr, ptr %5, align 8, !tbaa !26
  %47 = load i64, ptr %6, align 8, !tbaa !16
  call void @llvm.memcpy.p0.p0.i64(ptr align 1 %45, ptr align 1 %46, i64 %47, i1 false)
  %48 = load ptr, ptr %4, align 8, !tbaa !3
  %49 = getelementptr inbounds nuw %struct.mbedtls_mpi, ptr %48, i32 0, i32 2
  %50 = load ptr, ptr %49, align 8, !tbaa !14
  %51 = load i64, ptr %8, align 8, !tbaa !16
  call void @_ZL21mpi_bigendian_to_hostPmm(ptr noundef %50, i64 noundef %51)
  br label %52

52:                                               ; preds = %39, %36
  br label %53

53:                                               ; preds = %52, %33
  %54 = load i32, ptr %7, align 4, !tbaa !19
  call void @llvm.lifetime.end.p0(i64 8, ptr %10) #10
  call void @llvm.lifetime.end.p0(i64 8, ptr %9) #10
  call void @llvm.lifetime.end.p0(i64 8, ptr %8) #10
  call void @llvm.lifetime.end.p0(i64 4, ptr %7) #10
  ret i32 %54
}