; Function Attrs: mustprogress uwtable
define hidden noundef range(i32 -16, 1) i32 @mbedtls_mpi_read_binary(ptr noundef captures(address_is_null) %0, ptr noundef readonly captures(none) %1, i64 noundef %2) local_unnamed_addr #1 {
  %4 = lshr i64 %2, 3
  %5 = and i64 %2, 7
  %6 = icmp ne i64 %5, 0
  %7 = zext i1 %6 to i64
  %8 = add nuw nsw i64 %4, %7
  %9 = tail call fastcc noundef i32 @_ZL24mbedtls_mpi_resize_clearP11mbedtls_mpim(ptr noundef %0, i64 noundef %8)
  %10 = icmp eq i32 %9, 0
  %11 = icmp ne i64 %2, 0
  %or.cond = and i1 %11, %10
  br i1 %or.cond, label %12, label %_ZL21mpi_bigendian_to_hostPmm.exit

12:                                               ; preds = %3
  %13 = shl i64 %8, 3
  %14 = sub i64 %13, %2
  %15 = getelementptr inbounds nuw i8, ptr %0, i64 16
  %16 = load ptr, ptr %15, align 8, !tbaa !11
  %17 = getelementptr inbounds nuw i8, ptr %16, i64 %14
  tail call void @llvm.memcpy.p0.p0.i64(ptr align 1 %17, ptr align 1 %1, i64 %2, i1 false)
  %18 = load ptr, ptr %15, align 8, !tbaa !11
  %19 = icmp eq i64 %8, 0
  %20 = getelementptr i64, ptr %18, i64 %8
  %.01214.i = getelementptr i8, ptr %20, i64 -8
  %.not15.i = icmp ugt ptr %18, %.01214.i
  %or.cond.i = or i1 %19, %.not15.i
  br i1 %or.cond.i, label %_ZL21mpi_bigendian_to_hostPmm.exit, label %.lr.ph.i

.lr.ph.i:                                         ; preds = %12, %.lr.ph.i
  %.01217.i = phi ptr [ %.012.i, %.lr.ph.i ], [ %.01214.i, %12 ]
  %.016.i = phi ptr [ %25, %.lr.ph.i ], [ %18, %12 ]
  %21 = load i64, ptr %.016.i, align 8, !tbaa !13
  %22 = tail call noundef i64 @llvm.bswap.i64(i64 %21)
  %23 = load i64, ptr %.01217.i, align 8, !tbaa !13
  %24 = tail call noundef i64 @llvm.bswap.i64(i64 %23)
  store i64 %24, ptr %.016.i, align 8, !tbaa !13
  store i64 %22, ptr %.01217.i, align 8, !tbaa !13
  %25 = getelementptr inbounds nuw i8, ptr %.016.i, i64 8
  %.012.i = getelementptr i8, ptr %.01217.i, i64 -8
  %.not.i = icmp ugt ptr %25, %.012.i
  br i1 %.not.i, label %_ZL21mpi_bigendian_to_hostPmm.exit, label %.lr.ph.i, !llvm.loop !31

_ZL21mpi_bigendian_to_hostPmm.exit:               ; preds = %.lr.ph.i, %12, %3
  ret i32 %9
}